target datalayout = "e-m:e-p270:32:32-p271:32:32-p272:64:64-i64:64-i128:128-f80:128-n8:16:32:64-S128"
target triple = "x86_64-pc-linux-gnu"

%class.goal2sat = type <{ ptr, i32, [4 x i8] }>
%"class.std::__cxx11::basic_string" = type { %"struct.std::__cxx11::basic_string<char>::_Alloc_hider", i64, %union.anon }
%"struct.std::__cxx11::basic_string<char>::_Alloc_hider" = type { ptr }
%union.anon = type { i64, [8 x i8] }
%class.goal = type <{ ptr, %class.ref, %class.ref.64, %class.ref.65, i32, [4 x i8], %"class.std::__cxx11::basic_string", %"class.parray_manager<ast_manager::expr_array_config>::ref", %"class.parray_manager<ast_manager::expr_array_config>::ref", %"class.parray_manager<ast_manager::expr_dependency_array_config>::ref", i32, [4 x i8] }>
%class.ref = type { ptr }
%class.ref.64 = type { ptr }
%class.ref.65 = type { ptr }
%"class.parray_manager<ast_manager::expr_array_config>::ref" = type <{ ptr, i32, [4 x i8] }>
%"class.parray_manager<ast_manager::expr_dependency_array_config>::ref" = type <{ ptr, i32, [4 x i8] }>

; Function Attrs: mustprogress uwtable
define linkonce_odr hidden void @_ZN8goal2sat3imp9user_pushEv(ptr noundef nonnull align 8 dereferenceable(300) %0) #5 comdat align 2 {
  %2 = alloca ptr, align 8
  store ptr %0, ptr %2, align 8, !tbaa !15
  %3 = load ptr, ptr %2, align 8
  %4 = load ptr, ptr %3, align 8, !tbaa !16
  %5 = getelementptr inbounds ptr, ptr %4, i64 10
  %6 = load ptr, ptr %5, align 8
  call void %6(ptr noundef nonnull align 8 dereferenceable(300) %3)
  ret void
}

; Function Attrs: mustprogress uwtable
define hidden void @_ZN8goal2sat4initER11ast_managerRK10params_refRN3sat11solver_coreER13atom2bool_varR7obj_mapI4exprNS5_7literalEEb(ptr noundef nonnull align 8 dereferenceable(12) %0, ptr noundef nonnull align 8 dereferenceable(976) %1, ptr noundef nonnull align 8 dereferenceable(8) %2, ptr noundef nonnull align 8 dereferenceable(16) %3, ptr noundef nonnull align 8 dereferenceable(41) %4, ptr noundef nonnull align 8 dereferenceable(24) %5, i1 noundef zeroext %6) #5 align 2 {
  %8 = alloca ptr, align 8
  %9 = alloca ptr, align 8
  %10 = alloca ptr, align 8
  %11 = alloca ptr, align 8
  %12 = alloca ptr, align 8
  %13 = alloca ptr, align 8
  %14 = alloca i8, align 1
  %15 = alloca i32, align 4
  store ptr %0, ptr %8, align 8, !tbaa !8
  store ptr %1, ptr %9, align 8, !tbaa !85
  store ptr %2, ptr %10, align 8, !tbaa !86
  store ptr %3, ptr %11, align 8, !tbaa !88
  store ptr %4, ptr %12, align 8, !tbaa !89
  store ptr %5, ptr %13, align 8, !tbaa !90
  %16 = zext i1 %6 to i8
  store i8 %16, ptr %14, align 1, !tbaa !91
  %17 = load ptr, ptr %8, align 8
  %18 = getelementptr inbounds nuw %class.goal2sat, ptr %17, i32 0, i32 0
  %19 = load ptr, ptr %18, align 8, !tbaa !10
  %20 = icmp ne ptr %19, null
  br i1 %20, label %44, label %21

21:                                               ; preds = %7
  %22 = call noalias noundef ptr @_ZN6memory8allocateEm(i64 noundef 304)
  %23 = load ptr, ptr %9, align 8, !tbaa !85
  %24 = load ptr, ptr %10, align 8, !tbaa !86
  %25 = load ptr, ptr %11, align 8, !tbaa !88
  %26 = load ptr, ptr %12, align 8, !tbaa !89
  %27 = load ptr, ptr %13, align 8, !tbaa !90
  %28 = load i8, ptr %14, align 1, !tbaa !91, !range !92, !noundef !93
  %29 = trunc i8 %28 to i1
  call void @_ZN8goal2sat3impC2ER11ast_managerRK10params_refRN3sat11solver_coreER13atom2bool_varR7obj_mapI4exprNS6_7literalEEb(ptr noundef nonnull align 8 dereferenceable(300) %22, ptr noundef nonnull align 8 dereferenceable(976) %23, ptr noundef nonnull align 8 dereferenceable(8) %24, ptr noundef nonnull align 8 dereferenceable(16) %25, ptr noundef nonnull align 8 dereferenceable(41) %26, ptr noundef nonnull align 8 dereferenceable(24) %27, i1 noundef zeroext %29)
  %30 = getelementptr inbounds nuw %class.goal2sat, ptr %17, i32 0, i32 0
  store ptr %22, ptr %30, align 8, !tbaa !10
  call void @llvm.lifetime.start.p0(i64 4, ptr %15) #3
  store i32 0, ptr %15, align 4, !tbaa !94
  br label %31

31:                                               ; preds = %40, %21
  %32 = load i32, ptr %15, align 4, !tbaa !94
  %33 = getelementptr inbounds nuw %class.goal2sat, ptr %17, i32 0, i32 1
  %34 = load i32, ptr %33, align 8, !tbaa !14
  %35 = icmp ult i32 %32, %34
  br i1 %35, label %37, label %36

36:                                               ; preds = %31
  call void @llvm.lifetime.end.p0(i64 4, ptr %15) #3
  br label %43

37:                                               ; preds = %31
  %38 = getelementptr inbounds nuw %class.goal2sat, ptr %17, i32 0, i32 0
  %39 = load ptr, ptr %38, align 8, !tbaa !10
  call void @_ZN8goal2sat3imp9user_pushEv(ptr noundef nonnull align 8 dereferenceable(300) %39)
  br label %40

40:                                               ; preds = %37
  %41 = load i32, ptr %15, align 4, !tbaa !94
  %42 = add i32 %41, 1
  store i32 %42, ptr %15, align 4, !tbaa !94
  br label %31, !llvm.loop !95

43:                                               ; preds = %36
  br label %44

44:                                               ; preds = %43, %7
  ret void
}

; Function Attrs: mustprogress nounwind uwtable
define linkonce_odr hidden noundef nonnull align 8 dereferenceable(976) ptr @_ZNK4goal1mEv(ptr noundef nonnull align 8 dereferenceable(124) %0) #4 comdat align 2 {
  %2 = alloca ptr, align 8
  store ptr %0, ptr %2, align 8, !tbaa !3
  %3 = load ptr, ptr %2, align 8
  %4 = getelementptr inbounds nuw %class.goal, ptr %3, i32 0, i32 0
  %5 = load ptr, ptr %4, align 8, !tbaa !102
  ret ptr %5
}

; Function Attrs: mustprogress uwtable
define hidden void @_ZN8goal2satclERK4goalRK10params_refRN3sat11solver_coreER13atom2bool_varR7obj_mapI4exprNS6_7literalEEb(ptr noundef nonnull align 8 dereferenceable(12) %0, ptr noundef nonnull align 8 dereferenceable(124) %1, ptr noundef nonnull align 8 dereferenceable(8) %2, ptr noundef nonnull align 8 dereferenceable(16) %3, ptr noundef nonnull align 8 dereferenceable(41) %4, ptr noundef nonnull align 8 dereferenceable(24) %5, i1 noundef zeroext %6) #5 align 2 {
  %8 = alloca ptr, align 8
  %9 = alloca ptr, align 8
  %10 = alloca ptr, align 8
  %11 = alloca ptr, align 8
  %12 = alloca ptr, align 8
  %13 = alloca ptr, align 8
  %14 = alloca i8, align 1
  store ptr %0, ptr %8, align 8, !tbaa !8
  store ptr %1, ptr %9, align 8, !tbaa !3
  store ptr %2, ptr %10, align 8, !tbaa !86
  store ptr %3, ptr %11, align 8, !tbaa !88
  store ptr %4, ptr %12, align 8, !tbaa !89
  store ptr %5, ptr %13, align 8, !tbaa !90
  %15 = zext i1 %6 to i8
  store i8 %15, ptr %14, align 1, !tbaa !91
  %16 = load ptr, ptr %8, align 8
  %17 = load ptr, ptr %9, align 8, !tbaa !3
  %18 = call noundef nonnull align 8 dereferenceable(976) ptr @_ZNK4goal1mEv(ptr noundef nonnull align 8 dereferenceable(124) %17)
  %19 = load ptr, ptr %10, align 8, !tbaa !86
  %20 = load ptr, ptr %11, align 8, !tbaa !88
  %21 = load ptr, ptr %12, align 8, !tbaa !89
  %22 = load ptr, ptr %13, align 8, !tbaa !90
  %23 = load i8, ptr %14, align 1, !tbaa !91, !range !92, !noundef !93
  %24 = trunc i8 %23 to i1
  call void @_ZN8goal2sat4initER11ast_managerRK10params_refRN3sat11solver_coreER13atom2bool_varR7obj_mapI4exprNS5_7literalEEb(ptr noundef nonnull align 8 dereferenceable(12) %16, ptr noundef nonnull align 8 dereferenceable(976) %18, ptr noundef nonnull align 8 dereferenceable(8) %19, ptr noundef nonnull align 8 dereferenceable(16) %20, ptr noundef nonnull align 8 dereferenceable(41) %21, ptr noundef nonnull align 8 dereferenceable(24) %22, i1 noundef zeroext %24)
  %25 = getelementptr inbounds nuw %class.goal2sat, ptr %16, i32 0, i32 0
  %26 = load ptr, ptr %25, align 8, !tbaa !10
  %27 = load ptr, ptr %9, align 8, !tbaa !3
  call void @_ZN8goal2sat3impclERK4goal(ptr noundef nonnull align 8 dereferenceable(300) %26, ptr noundef nonnull align 8 dereferenceable(124) %27)
  ret void
}