; Function Attrs: mustprogress uwtable
define hidden void @_ZN8goal2satclERK4goalRK10params_refRN3sat11solver_coreER13atom2bool_varR7obj_mapI4exprNS6_7literalEEb(ptr noundef nonnull align 8 captures(none) dereferenceable(12) %0, ptr noundef nonnull align 8 dereferenceable(124) %1, ptr noundef nonnull align 8 dereferenceable(8) %2, ptr noundef nonnull align 8 dereferenceable(16) %3, ptr noundef nonnull align 8 dereferenceable(41) %4, ptr noundef nonnull align 8 dereferenceable(24) %5, i1 noundef zeroext %6) local_unnamed_addr #8 align 2 {
  %8 = load ptr, ptr %0, align 8, !tbaa !3
  %.not.i = icmp eq ptr %8, null
  br i1 %.not.i, label %9, label %_ZN8goal2sat4initER11ast_managerRK10params_refRN3sat11solver_coreER13atom2bool_varR7obj_mapI4exprNS5_7literalEEb.exit

9:                                                ; preds = %7
  %10 = load ptr, ptr %1, align 8, !tbaa !130
  %11 = tail call noalias noundef ptr @_ZN6memory8allocateEm(i64 noundef 304)
  tail call void @_ZN8goal2sat3impC2ER11ast_managerRK10params_refRN3sat11solver_coreER13atom2bool_varR7obj_mapI4exprNS6_7literalEEb(ptr noundef nonnull align 8 dereferenceable(300) %11, ptr noundef nonnull align 8 dereferenceable(976) %10, ptr noundef nonnull align 8 dereferenceable(8) %2, ptr noundef nonnull align 8 dereferenceable(16) %3, ptr noundef nonnull align 8 dereferenceable(41) %4, ptr noundef nonnull align 8 dereferenceable(24) %5, i1 noundef zeroext %6)
  store ptr %11, ptr %0, align 8, !tbaa !3
  %12 = getelementptr inbounds nuw i8, ptr %0, i64 8
  %13 = load i32, ptr %12, align 8, !tbaa !10
  %.not9.i = icmp eq i32 %13, 0
  br i1 %.not9.i, label %_ZN8goal2sat4initER11ast_managerRK10params_refRN3sat11solver_coreER13atom2bool_varR7obj_mapI4exprNS5_7literalEEb.exit, label %.lr.ph.i

.lr.ph.i:                                         ; preds = %9, %.lr.ph.i
  %.08.i = phi i32 [ %18, %.lr.ph.i ], [ 0, %9 ]
  %14 = load ptr, ptr %0, align 8, !tbaa !3
  %15 = load ptr, ptr %14, align 8, !tbaa !11
  %16 = getelementptr inbounds nuw i8, ptr %15, i64 80
  %17 = load ptr, ptr %16, align 8
  tail call void %17(ptr noundef nonnull align 8 dereferenceable(300) %14)
  %18 = add nuw i32 %.08.i, 1
  %19 = load i32, ptr %12, align 8, !tbaa !10
  %20 = icmp ult i32 %18, %19
  br i1 %20, label %.lr.ph.i, label %_ZN8goal2sat4initER11ast_managerRK10params_refRN3sat11solver_coreER13atom2bool_varR7obj_mapI4exprNS5_7literalEEb.exit.loopexit, !llvm.loop !84

_ZN8goal2sat4initER11ast_managerRK10params_refRN3sat11solver_coreER13atom2bool_varR7obj_mapI4exprNS5_7literalEEb.exit.loopexit: ; preds = %.lr.ph.i
  %.pre = load ptr, ptr %0, align 8, !tbaa !3
  br label %_ZN8goal2sat4initER11ast_managerRK10params_refRN3sat11solver_coreER13atom2bool_varR7obj_mapI4exprNS5_7literalEEb.exit

_ZN8goal2sat4initER11ast_managerRK10params_refRN3sat11solver_coreER13atom2bool_varR7obj_mapI4exprNS5_7literalEEb.exit: ; preds = %_ZN8goal2sat4initER11ast_managerRK10params_refRN3sat11solver_coreER13atom2bool_varR7obj_mapI4exprNS5_7literalEEb.exit.loopexit, %7, %9
  %21 = phi ptr [ %.pre, %_ZN8goal2sat4initER11ast_managerRK10params_refRN3sat11solver_coreER13atom2bool_varR7obj_mapI4exprNS5_7literalEEb.exit.loopexit ], [ %8, %7 ], [ %11, %9 ]
  tail call void @_ZN8goal2sat3impclERK4goal(ptr noundef nonnull align 8 dereferenceable(300) %21, ptr noundef nonnull align 8 dereferenceable(124) %1)
  ret void
}